; Function Attrs: mustprogress uwtable
define void @_ZN8QuantLib22AnalyticGJRGARCHEngineC2ERKN5boost10shared_ptrINS_13GJRGARCHModelEEE(ptr noundef nonnull align 8 dereferenceable(528) %this, ptr noundef nonnull align 8 dereferenceable(16) %model) unnamed_addr #6 align 2 {
entry:
  tail call void @_ZN8QuantLib18GenericModelEngineINS_13GJRGARCHModelENS_6Option9argumentsENS_14OneAssetOption7resultsEEC2ERKN5boost10shared_ptrIS1_EE(ptr noundef nonnull align 8 dereferenceable(352) %this, ptr noundef nonnull align 8 dereferenceable(16) %model)
  store ptr getelementptr inbounds inrange(-16, 56) (i8, ptr @_ZTVN8QuantLib22AnalyticGJRGARCHEngineE, i64 16), ptr %this, align 8, !tbaa !35
  %add.ptr = getelementptr inbounds i8, ptr %this, i64 56
  store ptr getelementptr inbounds inrange(-16, 32) (i8, ptr @_ZTVN8QuantLib22AnalyticGJRGARCHEngineE, i64 88), ptr %add.ptr, align 8, !tbaa !35
  %init_ = getelementptr inbounds nuw i8, ptr %this, i64 352
  store i8 0, ptr %init_, align 8, !tbaa !39
  ret void
}